target datalayout = "e-m:e-p270:32:32-p271:32:32-p272:64:64-i64:64-i128:128-f80:128-n8:16:32:64-S128"
target triple = "x86_64-pc-linux-gnu"

@hf_gtpv2_metric = internal global i32 0, align 4
@.str.1794 = private unnamed_addr constant [3 x i8] c"%u\00", align 1
@.str.1847 = private unnamed_addr constant [44 x i8] c"Metric: value beyond 100 is considered as 0\00", align 1

; Function Attrs: null_pointer_is_valid sspstrong uwtable
define internal void @dissect_gtpv2_metric(ptr noundef %0, ptr noundef %1, ptr noundef %2, ptr noundef %3, i16 noundef zeroext %4, i8 noundef zeroext %5, i8 noundef zeroext %6, ptr noundef %7) #1 {
  %9 = alloca ptr, align 8
  %10 = alloca ptr, align 8
  %11 = alloca ptr, align 8
  %12 = alloca ptr, align 8
  %13 = alloca i16, align 2
  %14 = alloca i8, align 1
  %15 = alloca i8, align 1
  %16 = alloca ptr, align 8
  %17 = alloca i32, align 4
  store ptr %0, ptr %9, align 8
  store ptr %1, ptr %10, align 8
  store ptr %2, ptr %11, align 8
  store ptr %3, ptr %12, align 8
  store i16 %4, ptr %13, align 2
  store i8 %5, ptr %14, align 1
  store i8 %6, ptr %15, align 1
  store ptr %7, ptr %16, align 8
  call void @llvm.lifetime.start.p0(i64 4, ptr %17) #11
  %18 = load ptr, ptr %11, align 8
  %19 = load i32, ptr @hf_gtpv2_metric, align 4
  %20 = load ptr, ptr %9, align 8
  %21 = call ptr @proto_tree_add_item_ret_uint(ptr noundef %18, i32 noundef %19, ptr noundef %20, i32 noundef 0, i32 noundef 1, i32 noundef 0, ptr noundef %17)
  %22 = load i32, ptr %17, align 4
  %23 = icmp ugt i32 %22, 100
  br i1 %23, label %24, label %26

24:                                               ; preds = %8
  %25 = load ptr, ptr %12, align 8
  call void (ptr, ptr, ...) @proto_item_append_text(ptr noundef %25, ptr noundef @.str.1847)
  br label %29

26:                                               ; preds = %8
  %27 = load ptr, ptr %12, align 8
  %28 = load i32, ptr %17, align 4
  call void (ptr, ptr, ...) @proto_item_append_text(ptr noundef %27, ptr noundef @.str.1794, i32 noundef %28)
  br label %29

29:                                               ; preds = %26, %24
  call void @llvm.lifetime.end.p0(i64 4, ptr %17) #11
  ret void
}