; Function Attrs: null_pointer_is_valid sspstrong uwtable
define internal void @dissect_gtpv2_metric(ptr noundef %0, ptr readnone captures(none) %1, ptr noundef %2, ptr noundef %3, i16 zeroext %4, i8 zeroext %5, i8 zeroext %6, ptr readnone captures(none) %7) #1 {
  %9 = alloca i32, align 4
  call void @llvm.lifetime.start.p0(i64 4, ptr nonnull %9) #12
  %10 = load i32, ptr @hf_gtpv2_metric, align 4
  %11 = call ptr @proto_tree_add_item_ret_uint(ptr noundef %2, i32 noundef %10, ptr noundef %0, i32 noundef 0, i32 noundef 1, i32 noundef 0, ptr noundef nonnull %9)
  %12 = load i32, ptr %9, align 4
  %13 = icmp ugt i32 %12, 100
  br i1 %13, label %14, label %15

14:                                               ; preds = %8
  call void (ptr, ptr, ...) @proto_item_append_text(ptr noundef %3, ptr noundef nonnull @.str.1847)
  br label %16

15:                                               ; preds = %8
  call void (ptr, ptr, ...) @proto_item_append_text(ptr noundef %3, ptr noundef nonnull @.str.1794, i32 noundef %12)
  br label %16

16:                                               ; preds = %15, %14
  call void @llvm.lifetime.end.p0(i64 4, ptr nonnull %9) #12
  ret void
}